(dp0
V2018-10-29 18:07:07.755184
p1
I14
sV2018-10-29 18:43:18.910698
p2
I23
sV2018-10-29 20:19:00.396092
p3
(lp4
sV2018-10-29 20:18:00.726160
p5
(lp6
sV2018-10-29 19:32:21.218290
p7
(lp8
VWatchtower \u2013 Monitor for PII Across SaaS Tools
p9
aVCanada Ratifies Pacific Trade Deal with Australia Close Behind
p10
asV2018-10-29 19:43:22.371261
p11
I6
sV2018-10-29 20:11:58.283584
p12
(lp13
VAsk HN: What is your relationship with Imageboards?
p14
aVA complete guide to waking up feeling fantastic
p15
aVNew Zealand schools get the license to Chrome
p16
aVRED Hydrogen One review: all hype
p17
aVVPN Extensions are not for privacy
p18
aVSelf-care tips for developers
p19
aVEurope\u2019s billion-euro quantum flagship hands out first grants
p20
aVWeb Performance 101: how to optimize your JS, CSS, HTTP stuff, images, and fonts
p21
aVThe Hidden History of African-American Burial Sites in the Antebellum South
p22
aVCanada legalization: Could the NHL be a leader in pot policy?
p23
aVThe Weirdly Lost History of Sesame Street
p24
aVGraveyards of the Contiguous USA
p25
aVParker Solar Probe Breaks Record, Becomes Closest Spacecraft to Sun
p26
aVAsk HN: Why did Evernote fail?
p27
asV2018-10-29 20:16:03.769547
p28
(lp29
sV2018-10-29 17:40:47.182673
p30
I3
sV2018-10-29 20:21:01.176752
p31
(lp32
VHow I Lent My $4,500 Camera Kit for $95 and Had It \u2018Legally Stolen\u2019
p33
asV2018-10-29 19:29:37.192717
p34
I22
sV2018-10-29 20:20:01.221392
p35
(lp36
s.